target datalayout = "e-m:e-p270:32:32-p271:32:32-p272:64:64-i64:64-i128:128-f80:128-n8:16:32:64-S128"
target triple = "x86_64-unknown-linux-gnu"

%class.b3Vector3 = type { %union.anon }
%union.anon = type { [4 x float] }
%class.b3GpuRigidBodyPipeline = type { ptr, ptr }
%struct.b3GpuRigidBodyPipelineInternalData = type { ptr, ptr, ptr, ptr, ptr, ptr, ptr, ptr, ptr, ptr, ptr, ptr, ptr, ptr, %class.b3AlignedObjectArray, ptr, ptr, %class.b3AlignedObjectArray.7, %class.b3AlignedObjectArray.11, i32, ptr, %class.b3Vector3, %struct.b3Config }
%class.b3AlignedObjectArray = type <{ %class.b3AlignedAllocator, [3 x i8], i32, i32, [4 x i8], ptr, i8, [7 x i8] }>
%class.b3AlignedAllocator = type { i8 }
%class.b3AlignedObjectArray.7 = type <{ %class.b3AlignedAllocator.8, [3 x i8], i32, i32, [4 x i8], ptr, i8, [7 x i8] }>
%class.b3AlignedAllocator.8 = type { i8 }
%class.b3AlignedObjectArray.11 = type <{ %class.b3AlignedAllocator.12, [3 x i8], i32, i32, [4 x i8], ptr, i8, [7 x i8] }>
%class.b3AlignedAllocator.12 = type { i8 }
%struct.b3Config = type { i32, i32, i32, i32, i32, i32, i32, i32, i32, i32, i32, i32 }

@_ZTV22b3GpuRigidBodyPipeline = dso_local unnamed_addr constant { [4 x ptr] } { [4 x ptr] [ptr null, ptr @_ZTI22b3GpuRigidBodyPipeline, ptr @_ZN22b3GpuRigidBodyPipelineD1Ev, ptr @_ZN22b3GpuRigidBodyPipelineD0Ev] }, align 8
@__clewReleaseKernel = external global ptr, align 8

; Function Attrs: mustprogress nounwind uwtable
define dso_local void @_ZN22b3GpuRigidBodyPipelineD2Ev(ptr noundef nonnull align 8 dereferenceable(16) %this) unnamed_addr #6 align 2 personality ptr @__gxx_personality_v0 {
entry:
  %this.addr = alloca ptr, align 8
  store ptr %this, ptr %this.addr, align 8
  %this1 = load ptr, ptr %this.addr, align 8
  store ptr getelementptr inbounds ({ [4 x ptr] }, ptr @_ZTV22b3GpuRigidBodyPipeline, i32 0, i32 0, i32 2), ptr %this1, align 8
  %m_data = getelementptr inbounds %class.b3GpuRigidBodyPipeline, ptr %this1, i32 0, i32 1
  %0 = load ptr, ptr %m_data, align 8
  %m_integrateTransformsKernel = getelementptr inbounds %struct.b3GpuRigidBodyPipelineInternalData, ptr %0, i32 0, i32 3
  %1 = load ptr, ptr %m_integrateTransformsKernel, align 8
  %tobool = icmp ne ptr %1, null
  br i1 %tobool, label %if.then, label %if.end

if.then:                                          ; preds = %entry
  %2 = load ptr, ptr @__clewReleaseKernel, align 8
  %m_data2 = getelementptr inbounds %class.b3GpuRigidBodyPipeline, ptr %this1, i32 0, i32 1
  %3 = load ptr, ptr %m_data2, align 8
  %m_integrateTransformsKernel3 = getelementptr inbounds %struct.b3GpuRigidBodyPipelineInternalData, ptr %3, i32 0, i32 3
  %4 = load ptr, ptr %m_integrateTransformsKernel3, align 8
  %call = invoke i32 %2(ptr noundef %4)
          to label %invoke.cont unwind label %terminate.lpad

invoke.cont:                                      ; preds = %if.then
  br label %if.end

if.end:                                           ; preds = %invoke.cont, %entry
  %m_data4 = getelementptr inbounds %class.b3GpuRigidBodyPipeline, ptr %this1, i32 0, i32 1
  %5 = load ptr, ptr %m_data4, align 8
  %m_updateAabbsKernel = getelementptr inbounds %struct.b3GpuRigidBodyPipelineInternalData, ptr %5, i32 0, i32 4
  %6 = load ptr, ptr %m_updateAabbsKernel, align 16
  %tobool5 = icmp ne ptr %6, null
  br i1 %tobool5, label %if.then6, label %if.end11

if.then6:                                         ; preds = %if.end
  %7 = load ptr, ptr @__clewReleaseKernel, align 8
  %m_data7 = getelementptr inbounds %class.b3GpuRigidBodyPipeline, ptr %this1, i32 0, i32 1
  %8 = load ptr, ptr %m_data7, align 8
  %m_updateAabbsKernel8 = getelementptr inbounds %struct.b3GpuRigidBodyPipelineInternalData, ptr %8, i32 0, i32 4
  %9 = load ptr, ptr %m_updateAabbsKernel8, align 16
  %call10 = invoke i32 %7(ptr noundef %9)
          to label %invoke.cont9 unwind label %terminate.lpad

invoke.cont9:                                     ; preds = %if.then6
  br label %if.end11

if.end11:                                         ; preds = %invoke.cont9, %if.end
  %m_data12 = getelementptr inbounds %class.b3GpuRigidBodyPipeline, ptr %this1, i32 0, i32 1
  %10 = load ptr, ptr %m_data12, align 8
  %m_clearOverlappingPairsKernel = getelementptr inbounds %struct.b3GpuRigidBodyPipelineInternalData, ptr %10, i32 0, i32 5
  %11 = load ptr, ptr %m_clearOverlappingPairsKernel, align 8
  %tobool13 = icmp ne ptr %11, null
  br i1 %tobool13, label %if.then14, label %if.end19

if.then14:                                        ; preds = %if.end11
  %12 = load ptr, ptr @__clewReleaseKernel, align 8
  %m_data15 = getelementptr inbounds %class.b3GpuRigidBodyPipeline, ptr %this1, i32 0, i32 1
  %13 = load ptr, ptr %m_data15, align 8
  %m_clearOverlappingPairsKernel16 = getelementptr inbounds %struct.b3GpuRigidBodyPipelineInternalData, ptr %13, i32 0, i32 5
  %14 = load ptr, ptr %m_clearOverlappingPairsKernel16, align 8
  %call18 = invoke i32 %12(ptr noundef %14)
          to label %invoke.cont17 unwind label %terminate.lpad

invoke.cont17:                                    ; preds = %if.then14
  br label %if.end19

if.end19:                                         ; preds = %invoke.cont17, %if.end11
  %m_data20 = getelementptr inbounds %class.b3GpuRigidBodyPipeline, ptr %this1, i32 0, i32 1
  %15 = load ptr, ptr %m_data20, align 8
  %m_raycaster = getelementptr inbounds %struct.b3GpuRigidBodyPipelineInternalData, ptr %15, i32 0, i32 10
  %16 = load ptr, ptr %m_raycaster, align 16
  %isnull = icmp eq ptr %16, null
  br i1 %isnull, label %delete.end, label %delete.notnull

delete.notnull:                                   ; preds = %if.end19
  %vtable = load ptr, ptr %16, align 8
  %vfn = getelementptr inbounds ptr, ptr %vtable, i64 1
  %17 = load ptr, ptr %vfn, align 8
  call void %17(ptr noundef nonnull align 8 dereferenceable(16) %16) #13
  br label %delete.end

delete.end:                                       ; preds = %delete.notnull, %if.end19
  %m_data21 = getelementptr inbounds %class.b3GpuRigidBodyPipeline, ptr %this1, i32 0, i32 1
  %18 = load ptr, ptr %m_data21, align 8
  %m_solver = getelementptr inbounds %struct.b3GpuRigidBodyPipelineInternalData, ptr %18, i32 0, i32 6
  %19 = load ptr, ptr %m_solver, align 16
  %isnull22 = icmp eq ptr %19, null
  br i1 %isnull22, label %delete.end26, label %delete.notnull23

delete.notnull23:                                 ; preds = %delete.end
  %vtable24 = load ptr, ptr %19, align 8
  %vfn25 = getelementptr inbounds ptr, ptr %vtable24, i64 5
  %20 = load ptr, ptr %vfn25, align 8
  call void %20(ptr noundef nonnull align 8 dereferenceable(448) %19) #13
  br label %delete.end26

delete.end26:                                     ; preds = %delete.notnull23, %delete.end
  %m_data27 = getelementptr inbounds %class.b3GpuRigidBodyPipeline, ptr %this1, i32 0, i32 1
  %21 = load ptr, ptr %m_data27, align 8
  %m_allAabbsGPU = getelementptr inbounds %struct.b3GpuRigidBodyPipelineInternalData, ptr %21, i32 0, i32 13
  %22 = load ptr, ptr %m_allAabbsGPU, align 8
  %isnull28 = icmp eq ptr %22, null
  br i1 %isnull28, label %delete.end32, label %delete.notnull29

delete.notnull29:                                 ; preds = %delete.end26
  %vtable30 = load ptr, ptr %22, align 8
  %vfn31 = getelementptr inbounds ptr, ptr %vtable30, i64 1
  %23 = load ptr, ptr %vfn31, align 8
  call void %23(ptr noundef nonnull align 8 dereferenceable(50) %22) #13
  br label %delete.end32

delete.end32:                                     ; preds = %delete.notnull29, %delete.end26
  %m_data33 = getelementptr inbounds %class.b3GpuRigidBodyPipeline, ptr %this1, i32 0, i32 1
  %24 = load ptr, ptr %m_data33, align 8
  %m_gpuConstraints = getelementptr inbounds %struct.b3GpuRigidBodyPipelineInternalData, ptr %24, i32 0, i32 16
  %25 = load ptr, ptr %m_gpuConstraints, align 8
  %isnull34 = icmp eq ptr %25, null
  br i1 %isnull34, label %delete.end38, label %delete.notnull35

delete.notnull35:                                 ; preds = %delete.end32
  %vtable36 = load ptr, ptr %25, align 8
  %vfn37 = getelementptr inbounds ptr, ptr %vtable36, i64 1
  %26 = load ptr, ptr %vfn37, align 8
  call void %26(ptr noundef nonnull align 8 dereferenceable(50) %25) #13
  br label %delete.end38

delete.end38:                                     ; preds = %delete.notnull35, %delete.end32
  %m_data39 = getelementptr inbounds %class.b3GpuRigidBodyPipeline, ptr %this1, i32 0, i32 1
  %27 = load ptr, ptr %m_data39, align 8
  %m_overlappingPairsGPU = getelementptr inbounds %struct.b3GpuRigidBodyPipelineInternalData, ptr %27, i32 0, i32 15
  %28 = load ptr, ptr %m_overlappingPairsGPU, align 16
  %isnull40 = icmp eq ptr %28, null
  br i1 %isnull40, label %delete.end44, label %delete.notnull41

delete.notnull41:                                 ; preds = %delete.end38
  %vtable42 = load ptr, ptr %28, align 8
  %vfn43 = getelementptr inbounds ptr, ptr %vtable42, i64 1
  %29 = load ptr, ptr %vfn43, align 8
  call void %29(ptr noundef nonnull align 8 dereferenceable(50) %28) #13
  br label %delete.end44

delete.end44:                                     ; preds = %delete.notnull41, %delete.end38
  %m_data45 = getelementptr inbounds %class.b3GpuRigidBodyPipeline, ptr %this1, i32 0, i32 1
  %30 = load ptr, ptr %m_data45, align 8
  %m_solver3 = getelementptr inbounds %struct.b3GpuRigidBodyPipelineInternalData, ptr %30, i32 0, i32 9
  %31 = load ptr, ptr %m_solver3, align 8
  %isnull46 = icmp eq ptr %31, null
  br i1 %isnull46, label %delete.end50, label %delete.notnull47

delete.notnull47:                                 ; preds = %delete.end44
  %vtable48 = load ptr, ptr %31, align 8
  %vfn49 = getelementptr inbounds ptr, ptr %vtable48, i64 1
  %32 = load ptr, ptr %vfn49, align 8
  call void %32(ptr noundef nonnull align 8 dereferenceable(40) %31) #13
  br label %delete.end50

delete.end50:                                     ; preds = %delete.notnull47, %delete.end44
  %m_data51 = getelementptr inbounds %class.b3GpuRigidBodyPipeline, ptr %this1, i32 0, i32 1
  %33 = load ptr, ptr %m_data51, align 8
  %m_solver2 = getelementptr inbounds %struct.b3GpuRigidBodyPipelineInternalData, ptr %33, i32 0, i32 8
  %34 = load ptr, ptr %m_solver2, align 16
  %isnull52 = icmp eq ptr %34, null
  br i1 %isnull52, label %delete.end56, label %delete.notnull53

delete.notnull53:                                 ; preds = %delete.end50
  %vtable54 = load ptr, ptr %34, align 8
  %vfn55 = getelementptr inbounds ptr, ptr %vtable54, i64 1
  %35 = load ptr, ptr %vfn55, align 8
  call void %35(ptr noundef nonnull align 8 dereferenceable(24) %34) #13
  br label %delete.end56

delete.end56:                                     ; preds = %delete.notnull53, %delete.end50
  %m_data57 = getelementptr inbounds %class.b3GpuRigidBodyPipeline, ptr %this1, i32 0, i32 1
  %36 = load ptr, ptr %m_data57, align 8
  %isnull58 = icmp eq ptr %36, null
  br i1 %isnull58, label %delete.end60, label %delete.notnull59

delete.notnull59:                                 ; preds = %delete.end56
  call void @_ZN34b3GpuRigidBodyPipelineInternalDataD2Ev(ptr noundef nonnull align 16 dereferenceable(304) %36) #13
  call void @_ZdlPv(ptr noundef %36) #12
  br label %delete.end60

delete.end60:                                     ; preds = %delete.notnull59, %delete.end56
  ret void

terminate.lpad:                                   ; preds = %if.then14, %if.then6, %if.then
  %37 = landingpad { ptr, i32 }
          catch ptr null
  %38 = extractvalue { ptr, i32 } %37, 0
  call void @__clang_call_terminate(ptr %38) #14
  unreachable
}