; Function Attrs: mustprogress nounwind uwtable
define dso_local void @_ZN22b3GpuRigidBodyPipelineD2Ev(ptr nocapture noundef nonnull align 8 dereferenceable(16) %this) unnamed_addr #6 align 2 personality ptr @__gxx_personality_v0 {
entry:
  store ptr getelementptr inbounds ({ [4 x ptr] }, ptr @_ZTV22b3GpuRigidBodyPipeline, i64 0, i32 0, i64 2), ptr %this, align 8
  %m_data = getelementptr inbounds i8, ptr %this, i64 8
  %0 = load ptr, ptr %m_data, align 8
  %m_integrateTransformsKernel = getelementptr inbounds i8, ptr %0, i64 24
  %1 = load ptr, ptr %m_integrateTransformsKernel, align 8
  %tobool.not = icmp eq ptr %1, null
  br i1 %tobool.not, label %if.end, label %if.then

if.then:                                          ; preds = %entry
  %2 = load ptr, ptr @__clewReleaseKernel, align 8
  %call = invoke i32 %2(ptr noundef nonnull %1)
          to label %if.then.if.end_crit_edge unwind label %terminate.lpad

if.then.if.end_crit_edge:                         ; preds = %if.then
  %.pre = load ptr, ptr %m_data, align 8
  br label %if.end

if.end:                                           ; preds = %if.then.if.end_crit_edge, %entry
  %3 = phi ptr [ %.pre, %if.then.if.end_crit_edge ], [ %0, %entry ]
  %m_updateAabbsKernel = getelementptr inbounds i8, ptr %3, i64 32
  %4 = load ptr, ptr %m_updateAabbsKernel, align 16
  %tobool5.not = icmp eq ptr %4, null
  br i1 %tobool5.not, label %if.end11, label %if.then6

if.then6:                                         ; preds = %if.end
  %5 = load ptr, ptr @__clewReleaseKernel, align 8
  %call10 = invoke i32 %5(ptr noundef nonnull %4)
          to label %if.then6.if.end11_crit_edge unwind label %terminate.lpad

if.then6.if.end11_crit_edge:                      ; preds = %if.then6
  %.pre11 = load ptr, ptr %m_data, align 8
  br label %if.end11

if.end11:                                         ; preds = %if.then6.if.end11_crit_edge, %if.end
  %6 = phi ptr [ %.pre11, %if.then6.if.end11_crit_edge ], [ %3, %if.end ]
  %m_clearOverlappingPairsKernel = getelementptr inbounds i8, ptr %6, i64 40
  %7 = load ptr, ptr %m_clearOverlappingPairsKernel, align 8
  %tobool13.not = icmp eq ptr %7, null
  br i1 %tobool13.not, label %if.end19, label %if.then14

if.then14:                                        ; preds = %if.end11
  %8 = load ptr, ptr @__clewReleaseKernel, align 8
  %call18 = invoke i32 %8(ptr noundef nonnull %7)
          to label %if.then14.if.end19_crit_edge unwind label %terminate.lpad

if.then14.if.end19_crit_edge:                     ; preds = %if.then14
  %.pre12 = load ptr, ptr %m_data, align 8
  br label %if.end19

if.end19:                                         ; preds = %if.then14.if.end19_crit_edge, %if.end11
  %9 = phi ptr [ %.pre12, %if.then14.if.end19_crit_edge ], [ %6, %if.end11 ]
  %m_raycaster = getelementptr inbounds i8, ptr %9, i64 80
  %10 = load ptr, ptr %m_raycaster, align 16
  %isnull = icmp eq ptr %10, null
  br i1 %isnull, label %delete.end, label %delete.notnull

delete.notnull:                                   ; preds = %if.end19
  %vtable = load ptr, ptr %10, align 8
  %vfn = getelementptr inbounds i8, ptr %vtable, i64 8
  %11 = load ptr, ptr %vfn, align 8
  tail call void %11(ptr noundef nonnull align 8 dereferenceable(16) %10) #21
  %.pre13 = load ptr, ptr %m_data, align 8
  br label %delete.end

delete.end:                                       ; preds = %delete.notnull, %if.end19
  %12 = phi ptr [ %.pre13, %delete.notnull ], [ %9, %if.end19 ]
  %m_solver = getelementptr inbounds i8, ptr %12, i64 48
  %13 = load ptr, ptr %m_solver, align 16
  %isnull22 = icmp eq ptr %13, null
  br i1 %isnull22, label %delete.end26, label %delete.notnull23

delete.notnull23:                                 ; preds = %delete.end
  %vtable24 = load ptr, ptr %13, align 8
  %vfn25 = getelementptr inbounds i8, ptr %vtable24, i64 40
  %14 = load ptr, ptr %vfn25, align 8
  tail call void %14(ptr noundef nonnull align 8 dereferenceable(448) %13) #21
  %.pre14 = load ptr, ptr %m_data, align 8
  br label %delete.end26

delete.end26:                                     ; preds = %delete.notnull23, %delete.end
  %15 = phi ptr [ %.pre14, %delete.notnull23 ], [ %12, %delete.end ]
  %m_allAabbsGPU = getelementptr inbounds i8, ptr %15, i64 104
  %16 = load ptr, ptr %m_allAabbsGPU, align 8
  %isnull28 = icmp eq ptr %16, null
  br i1 %isnull28, label %delete.end32, label %delete.notnull29

delete.notnull29:                                 ; preds = %delete.end26
  %vtable30 = load ptr, ptr %16, align 8
  %vfn31 = getelementptr inbounds i8, ptr %vtable30, i64 8
  %17 = load ptr, ptr %vfn31, align 8
  tail call void %17(ptr noundef nonnull align 8 dereferenceable(50) %16) #21
  %.pre15 = load ptr, ptr %m_data, align 8
  br label %delete.end32

delete.end32:                                     ; preds = %delete.notnull29, %delete.end26
  %18 = phi ptr [ %.pre15, %delete.notnull29 ], [ %15, %delete.end26 ]
  %m_gpuConstraints = getelementptr inbounds i8, ptr %18, i64 152
  %19 = load ptr, ptr %m_gpuConstraints, align 8
  %isnull34 = icmp eq ptr %19, null
  br i1 %isnull34, label %delete.end38, label %delete.notnull35

delete.notnull35:                                 ; preds = %delete.end32
  %vtable36 = load ptr, ptr %19, align 8
  %vfn37 = getelementptr inbounds i8, ptr %vtable36, i64 8
  %20 = load ptr, ptr %vfn37, align 8
  tail call void %20(ptr noundef nonnull align 8 dereferenceable(50) %19) #21
  %.pre16 = load ptr, ptr %m_data, align 8
  br label %delete.end38

delete.end38:                                     ; preds = %delete.notnull35, %delete.end32
  %21 = phi ptr [ %.pre16, %delete.notnull35 ], [ %18, %delete.end32 ]
  %m_overlappingPairsGPU = getelementptr inbounds i8, ptr %21, i64 144
  %22 = load ptr, ptr %m_overlappingPairsGPU, align 16
  %isnull40 = icmp eq ptr %22, null
  br i1 %isnull40, label %delete.end44, label %delete.notnull41

delete.notnull41:                                 ; preds = %delete.end38
  %vtable42 = load ptr, ptr %22, align 8
  %vfn43 = getelementptr inbounds i8, ptr %vtable42, i64 8
  %23 = load ptr, ptr %vfn43, align 8
  tail call void %23(ptr noundef nonnull align 8 dereferenceable(50) %22) #21
  %.pre17 = load ptr, ptr %m_data, align 8
  br label %delete.end44

delete.end44:                                     ; preds = %delete.notnull41, %delete.end38
  %24 = phi ptr [ %.pre17, %delete.notnull41 ], [ %21, %delete.end38 ]
  %m_solver3 = getelementptr inbounds i8, ptr %24, i64 72
  %25 = load ptr, ptr %m_solver3, align 8
  %isnull46 = icmp eq ptr %25, null
  br i1 %isnull46, label %delete.end50, label %delete.notnull47

delete.notnull47:                                 ; preds = %delete.end44
  %vtable48 = load ptr, ptr %25, align 8
  %vfn49 = getelementptr inbounds i8, ptr %vtable48, i64 8
  %26 = load ptr, ptr %vfn49, align 8
  tail call void %26(ptr noundef nonnull align 8 dereferenceable(40) %25) #21
  %.pre18 = load ptr, ptr %m_data, align 8
  br label %delete.end50

delete.end50:                                     ; preds = %delete.notnull47, %delete.end44
  %27 = phi ptr [ %.pre18, %delete.notnull47 ], [ %24, %delete.end44 ]
  %m_solver2 = getelementptr inbounds i8, ptr %27, i64 64
  %28 = load ptr, ptr %m_solver2, align 16
  %isnull52 = icmp eq ptr %28, null
  br i1 %isnull52, label %delete.notnull59, label %delete.end56

delete.end56:                                     ; preds = %delete.end50
  %vtable54 = load ptr, ptr %28, align 8
  %vfn55 = getelementptr inbounds i8, ptr %vtable54, i64 8
  %29 = load ptr, ptr %vfn55, align 8
  tail call void %29(ptr noundef nonnull align 8 dereferenceable(24) %28) #21
  %.pr = load ptr, ptr %m_data, align 8
  %isnull58 = icmp eq ptr %.pr, null
  br i1 %isnull58, label %delete.end60, label %delete.notnull59

delete.notnull59:                                 ; preds = %delete.end50, %delete.end56
  %30 = phi ptr [ %.pr, %delete.end56 ], [ %27, %delete.end50 ]
  tail call void @_ZN34b3GpuRigidBodyPipelineInternalDataD2Ev(ptr noundef nonnull align 16 dereferenceable(304) %30) #21
  tail call void @_ZdlPv(ptr noundef nonnull %30) #20
  br label %delete.end60

delete.end60:                                     ; preds = %delete.notnull59, %delete.end56
  ret void

terminate.lpad:                                   ; preds = %if.then14, %if.then6, %if.then
  %31 = landingpad { ptr, i32 }
          catch ptr null
  %32 = extractvalue { ptr, i32 } %31, 0
  tail call void @__clang_call_terminate(ptr %32) #19
  unreachable
}